target datalayout = "e-m:e-p270:32:32-p271:32:32-p272:64:64-i64:64-i128:128-f80:128-n8:16:32:64-S128"
target triple = "x86_64-pc-linux-gnu"

@.str = private unnamed_addr constant [9 x i8] c"SHA3-224\00", align 1
@.str.1 = private unnamed_addr constant [9 x i8] c"SHA3-256\00", align 1
@.str.2 = private unnamed_addr constant [9 x i8] c"SHA3-384\00", align 1
@.str.3 = private unnamed_addr constant [9 x i8] c"SHA3-512\00", align 1
@.str.4 = private unnamed_addr constant [2 x i8] c"\0A\00", align 1

; Function Attrs: nounwind uwtable
define hidden i32 @mbedtls_sha3_self_test(i32 noundef %0) #0 {
  %2 = alloca i32, align 4
  %3 = alloca i32, align 4
  %4 = alloca i32, align 4
  %5 = alloca i32, align 4
  store i32 %0, ptr %3, align 4, !tbaa !9
  call void @llvm.lifetime.start.p0(i64 4, ptr %4) #7
  store i32 0, ptr %4, align 4, !tbaa !9
  br label %6

6:                                                ; preds = %34, %1
  %7 = load i32, ptr %4, align 4, !tbaa !9
  %8 = icmp slt i32 %7, 2
  br i1 %8, label %9, label %37

9:                                                ; preds = %6
  %10 = load i32, ptr %3, align 4, !tbaa !9
  %11 = load i32, ptr %4, align 4, !tbaa !9
  %12 = call i32 @mbedtls_sha3_kat_test(i32 noundef %10, ptr noundef @.str, i32 noundef 1, i32 noundef %11)
  %13 = icmp ne i32 0, %12
  br i1 %13, label %14, label %15

14:                                               ; preds = %9
  store i32 1, ptr %2, align 4
  store i32 1, ptr %5, align 4
  br label %63

15:                                               ; preds = %9
  %16 = load i32, ptr %3, align 4, !tbaa !9
  %17 = load i32, ptr %4, align 4, !tbaa !9
  %18 = call i32 @mbedtls_sha3_kat_test(i32 noundef %16, ptr noundef @.str.1, i32 noundef 2, i32 noundef %17)
  %19 = icmp ne i32 0, %18
  br i1 %19, label %20, label %21

20:                                               ; preds = %15
  store i32 1, ptr %2, align 4
  store i32 1, ptr %5, align 4
  br label %63

21:                                               ; preds = %15
  %22 = load i32, ptr %3, align 4, !tbaa !9
  %23 = load i32, ptr %4, align 4, !tbaa !9
  %24 = call i32 @mbedtls_sha3_kat_test(i32 noundef %22, ptr noundef @.str.2, i32 noundef 3, i32 noundef %23)
  %25 = icmp ne i32 0, %24
  br i1 %25, label %26, label %27

26:                                               ; preds = %21
  store i32 1, ptr %2, align 4
  store i32 1, ptr %5, align 4
  br label %63

27:                                               ; preds = %21
  %28 = load i32, ptr %3, align 4, !tbaa !9
  %29 = load i32, ptr %4, align 4, !tbaa !9
  %30 = call i32 @mbedtls_sha3_kat_test(i32 noundef %28, ptr noundef @.str.3, i32 noundef 4, i32 noundef %29)
  %31 = icmp ne i32 0, %30
  br i1 %31, label %32, label %33

32:                                               ; preds = %27
  store i32 1, ptr %2, align 4
  store i32 1, ptr %5, align 4
  br label %63

33:                                               ; preds = %27
  br label %34

34:                                               ; preds = %33
  %35 = load i32, ptr %4, align 4, !tbaa !9
  %36 = add nsw i32 %35, 1
  store i32 %36, ptr %4, align 4, !tbaa !9
  br label %6, !llvm.loop !32

37:                                               ; preds = %6
  %38 = load i32, ptr %3, align 4, !tbaa !9
  %39 = call i32 @mbedtls_sha3_long_kat_test(i32 noundef %38, ptr noundef @.str, i32 noundef 1)
  %40 = icmp ne i32 0, %39
  br i1 %40, label %41, label %42

41:                                               ; preds = %37
  store i32 1, ptr %2, align 4
  store i32 1, ptr %5, align 4
  br label %63

42:                                               ; preds = %37
  %43 = load i32, ptr %3, align 4, !tbaa !9
  %44 = call i32 @mbedtls_sha3_long_kat_test(i32 noundef %43, ptr noundef @.str.1, i32 noundef 2)
  %45 = icmp ne i32 0, %44
  br i1 %45, label %46, label %47

46:                                               ; preds = %42
  store i32 1, ptr %2, align 4
  store i32 1, ptr %5, align 4
  br label %63

47:                                               ; preds = %42
  %48 = load i32, ptr %3, align 4, !tbaa !9
  %49 = call i32 @mbedtls_sha3_long_kat_test(i32 noundef %48, ptr noundef @.str.2, i32 noundef 3)
  %50 = icmp ne i32 0, %49
  br i1 %50, label %51, label %52

51:                                               ; preds = %47
  store i32 1, ptr %2, align 4
  store i32 1, ptr %5, align 4
  br label %63

52:                                               ; preds = %47
  %53 = load i32, ptr %3, align 4, !tbaa !9
  %54 = call i32 @mbedtls_sha3_long_kat_test(i32 noundef %53, ptr noundef @.str.3, i32 noundef 4)
  %55 = icmp ne i32 0, %54
  br i1 %55, label %56, label %57

56:                                               ; preds = %52
  store i32 1, ptr %2, align 4
  store i32 1, ptr %5, align 4
  br label %63

57:                                               ; preds = %52
  %58 = load i32, ptr %3, align 4, !tbaa !9
  %59 = icmp ne i32 %58, 0
  br i1 %59, label %60, label %62

60:                                               ; preds = %57
  %61 = call i32 (ptr, ...) @printf(ptr noundef @.str.4)
  br label %62

62:                                               ; preds = %60, %57
  store i32 0, ptr %2, align 4
  store i32 1, ptr %5, align 4
  br label %63

63:                                               ; preds = %62, %56, %51, %46, %41, %32, %26, %20, %14
  call void @llvm.lifetime.end.p0(i64 4, ptr %4) #7
  %64 = load i32, ptr %2, align 4
  ret i32 %64
}