; Function Attrs: nounwind uwtable
define hidden range(i32 0, 2) i32 @mbedtls_sha3_self_test(i32 noundef %0) local_unnamed_addr #2 {
  br label %3

2:                                                ; preds = %10
  br i1 %4, label %3, label %12, !llvm.loop !26

3:                                                ; preds = %1, %2
  %4 = phi i1 [ true, %1 ], [ false, %2 ]
  %.025 = phi i32 [ 0, %1 ], [ 1, %2 ]
  %5 = tail call fastcc i32 @mbedtls_sha3_kat_test(i32 noundef %0, ptr noundef nonnull @.str, i32 noundef 1, i32 noundef %.025)
  %.not21 = icmp eq i32 %5, 0
  br i1 %.not21, label %6, label %.loopexit

6:                                                ; preds = %3
  %7 = tail call fastcc i32 @mbedtls_sha3_kat_test(i32 noundef %0, ptr noundef nonnull @.str.1, i32 noundef 2, i32 noundef %.025)
  %.not22 = icmp eq i32 %7, 0
  br i1 %.not22, label %8, label %.loopexit

8:                                                ; preds = %6
  %9 = tail call fastcc i32 @mbedtls_sha3_kat_test(i32 noundef %0, ptr noundef nonnull @.str.2, i32 noundef 3, i32 noundef %.025)
  %.not23 = icmp eq i32 %9, 0
  br i1 %.not23, label %10, label %.loopexit

10:                                               ; preds = %8
  %11 = tail call fastcc i32 @mbedtls_sha3_kat_test(i32 noundef %0, ptr noundef nonnull @.str.3, i32 noundef 4, i32 noundef %.025)
  %.not24 = icmp eq i32 %11, 0
  br i1 %.not24, label %2, label %.loopexit

12:                                               ; preds = %2
  %13 = tail call fastcc i32 @mbedtls_sha3_long_kat_test(i32 noundef %0, ptr noundef nonnull @.str, i32 noundef 1)
  %.not = icmp eq i32 %13, 0
  br i1 %.not, label %14, label %.loopexit

14:                                               ; preds = %12
  %15 = tail call fastcc i32 @mbedtls_sha3_long_kat_test(i32 noundef %0, ptr noundef nonnull @.str.1, i32 noundef 2)
  %.not17 = icmp eq i32 %15, 0
  br i1 %.not17, label %16, label %.loopexit

16:                                               ; preds = %14
  %17 = tail call fastcc i32 @mbedtls_sha3_long_kat_test(i32 noundef %0, ptr noundef nonnull @.str.2, i32 noundef 3)
  %.not18 = icmp eq i32 %17, 0
  br i1 %.not18, label %18, label %.loopexit

18:                                               ; preds = %16
  %19 = tail call fastcc i32 @mbedtls_sha3_long_kat_test(i32 noundef %0, ptr noundef nonnull @.str.3, i32 noundef 4)
  %.not19 = icmp eq i32 %19, 0
  br i1 %.not19, label %20, label %.loopexit

20:                                               ; preds = %18
  %.not20 = icmp eq i32 %0, 0
  br i1 %.not20, label %.loopexit, label %21

21:                                               ; preds = %20
  %putchar = tail call i32 @putchar(i32 10)
  br label %.loopexit

.loopexit:                                        ; preds = %10, %8, %6, %3, %20, %21, %18, %16, %14, %12
  %.016 = phi i32 [ 1, %12 ], [ 1, %14 ], [ 1, %16 ], [ 1, %18 ], [ 0, %21 ], [ 0, %20 ], [ 1, %3 ], [ 1, %6 ], [ 1, %8 ], [ 1, %10 ]
  ret i32 %.016
}